; Function Attrs: mustprogress uwtable
define void @_ZN6icu_7713UCollationPCE4initERKNS_8CollatorE(ptr noundef nonnull writeonly align 8 captures(none) dereferenceable(292) initializes((280, 286), (288, 292)) %0, ptr noundef nonnull align 8 dereferenceable(8) %1) local_unnamed_addr #6 align 2 {
  %3 = alloca i32, align 4
  call void @llvm.lifetime.start.p0(i64 4, ptr nonnull %3) #14
  store i32 0, ptr %3, align 4, !tbaa !12
  %4 = load ptr, ptr %1, align 8, !tbaa !40
  %5 = getelementptr inbounds nuw i8, ptr %4, i64 192
  %6 = load ptr, ptr %5, align 8
  %7 = call noundef i32 %6(ptr noundef nonnull align 8 dereferenceable(8) %1, i32 noundef 5, ptr noundef nonnull align 4 dereferenceable(4) %3)
  %8 = getelementptr inbounds nuw i8, ptr %0, i64 280
  store i32 %7, ptr %8, align 8, !tbaa !42
  %9 = load ptr, ptr %1, align 8, !tbaa !40
  %10 = getelementptr inbounds nuw i8, ptr %9, i64 192
  %11 = load ptr, ptr %10, align 8
  %12 = call noundef i32 %11(ptr noundef nonnull align 8 dereferenceable(8) %1, i32 noundef 1, ptr noundef nonnull align 4 dereferenceable(4) %3)
  %13 = icmp eq i32 %12, 20
  %14 = zext i1 %13 to i8
  %15 = getelementptr inbounds nuw i8, ptr %0, i64 284
  store i8 %14, ptr %15, align 4, !tbaa !43
  %16 = getelementptr inbounds nuw i8, ptr %0, i64 285
  store i8 0, ptr %16, align 1, !tbaa !44
  %17 = load ptr, ptr %1, align 8, !tbaa !40
  %18 = getelementptr inbounds nuw i8, ptr %17, i64 240
  %19 = load ptr, ptr %18, align 8
  %20 = call noundef i32 %19(ptr noundef nonnull align 8 dereferenceable(8) %1, ptr noundef nonnull align 4 dereferenceable(4) %3)
  %21 = getelementptr inbounds nuw i8, ptr %0, i64 288
  store i32 %20, ptr %21, align 8, !tbaa !45
  call void @llvm.lifetime.end.p0(i64 4, ptr nonnull %3) #14
  ret void
}